; ModuleID = '17/1065.c'
source_filename = "17/1065.c"
target datalayout = "e-m:e-p270:32:32-p271:32:32-p272:64:64-i64:64-f80:128-n8:16:32:64-S128"
target triple = "x86_64-pc-linux-gnu"

%struct._IO_FILE = type { i32, i8*, i8*, i8*, i8*, i8*, i8*, i8*, i8*, i8*, i8*, i8*, %struct._IO_marker*, %struct._IO_FILE*, i32, i32, i64, i16, i8, [1 x i8], i8*, i64, %struct._IO_codecvt*, %struct._IO_wide_data*, %struct._IO_FILE*, i8*, i64, i32, [20 x i8] }
%struct._IO_marker = type opaque
%struct._IO_codecvt = type opaque
%struct._IO_wide_data = type opaque

@.str = private unnamed_addr constant [3 x i8] c"%d\00", align 1
@.str.1 = private unnamed_addr constant [3 x i8] c"%s\00", align 1
@.str.2 = private unnamed_addr constant [4 x i8] c"%s\0A\00", align 1
@.str.3 = private unnamed_addr constant [2 x i8] c"\0A\00", align 1
@stdin = external dso_local global %struct._IO_FILE*, align 8

; Function Attrs: noinline nounwind uwtable
define dso_local i32 @main() #0 {
  %1 = alloca i32, align 4
  %2 = alloca i32, align 4
  %3 = alloca i32, align 4
  %4 = alloca [500 x i8], align 16
  %5 = alloca [500 x i8], align 16
  %6 = alloca i32, align 4
  store i32 0, i32* %1, align 4
  %7 = bitcast [500 x i8]* %4 to i8*
  call void @llvm.memset.p0i8.i64(i8* align 16 %7, i8 0, i64 500, i1 false)
  %8 = bitcast [500 x i8]* %5 to i8*
  call void @llvm.memset.p0i8.i64(i8* align 16 %8, i8 0, i64 500, i1 false)
  %9 = call i32 (i8*, ...) @__isoc99_scanf(i8* getelementptr inbounds ([3 x i8], [3 x i8]* @.str, i64 0, i64 0), i32* %3)
  br label %10

10:                                               ; preds = %84, %0
  %11 = load i32, i32* %3, align 4
  %12 = add nsw i32 %11, -1
  store i32 %12, i32* %3, align 4
  %13 = icmp ne i32 %11, 0
  br i1 %13, label %14, label %92

14:                                               ; preds = %10
  %15 = getelementptr inbounds [500 x i8], [500 x i8]* %4, i64 0, i64 0
  %16 = call i32 (i8*, ...) @__isoc99_scanf(i8* getelementptr inbounds ([3 x i8], [3 x i8]* @.str.1, i64 0, i64 0), i8* %15)
  %17 = getelementptr inbounds [500 x i8], [500 x i8]* %4, i64 0, i64 0
  %18 = call i32 (i8*, ...) @printf(i8* getelementptr inbounds ([4 x i8], [4 x i8]* @.str.2, i64 0, i64 0), i8* %17)
  store i32 0, i32* %2, align 4
  br label %19

19:                                               ; preds = %81, %14
  %20 = load i32, i32* %2, align 4
  %21 = sext i32 %20 to i64
  %22 = getelementptr inbounds [500 x i8], [500 x i8]* %4, i64 0, i64 %21
  %23 = load i8, i8* %22, align 1
  %24 = sext i8 %23 to i32
  %25 = icmp ne i32 %24, 0
  br i1 %25, label %26, label %84

26:                                               ; preds = %19
  %27 = load i32, i32* %2, align 4
  %28 = sext i32 %27 to i64
  %29 = getelementptr inbounds [500 x i8], [500 x i8]* %4, i64 0, i64 %28
  %30 = load i8, i8* %29, align 1
  %31 = sext i8 %30 to i32
  %32 = icmp eq i32 %31, 40
  br i1 %32, label %33, label %37

33:                                               ; preds = %26
  %34 = load i32, i32* %2, align 4
  %35 = sext i32 %34 to i64
  %36 = getelementptr inbounds [500 x i8], [500 x i8]* %5, i64 0, i64 %35
  store i8 36, i8* %36, align 1
  br label %81

37:                                               ; preds = %26
  %38 = load i32, i32* %2, align 4
  %39 = sext i32 %38 to i64
  %40 = getelementptr inbounds [500 x i8], [500 x i8]* %4, i64 0, i64 %39
  %41 = load i8, i8* %40, align 1
  %42 = sext i8 %41 to i32
  %43 = icmp eq i32 %42, 41
  br i1 %43, label %44, label %76

44:                                               ; preds = %37
  %45 = load i32, i32* %2, align 4
  %46 = sub nsw i32 %45, 1
  store i32 %46, i32* %6, align 4
  br label %47

47:                                               ; preds = %65, %44
  %48 = load i32, i32* %6, align 4
  %49 = icmp sge i32 %48, 0
  br i1 %49, label %50, label %68

50:                                               ; preds = %47
  %51 = load i32, i32* %6, align 4
  %52 = sext i32 %51 to i64
  %53 = getelementptr inbounds [500 x i8], [500 x i8]* %5, i64 0, i64 %52
  %54 = load i8, i8* %53, align 1
  %55 = sext i8 %54 to i32
  %56 = icmp eq i32 %55, 36
  br i1 %56, label %57, label %64

57:                                               ; preds = %50
  %58 = load i32, i32* %6, align 4
  %59 = sext i32 %58 to i64
  %60 = getelementptr inbounds [500 x i8], [500 x i8]* %5, i64 0, i64 %59
  store i8 32, i8* %60, align 1
  %61 = load i32, i32* %2, align 4
  %62 = sext i32 %61 to i64
  %63 = getelementptr inbounds [500 x i8], [500 x i8]* %5, i64 0, i64 %62
  store i8 32, i8* %63, align 1
  br label %68

64:                                               ; preds = %50
  br label %65

65:                                               ; preds = %64
  %66 = load i32, i32* %6, align 4
  %67 = add nsw i32 %66, -1
  store i32 %67, i32* %6, align 4
  br label %47

68:                                               ; preds = %57, %47
  %69 = load i32, i32* %6, align 4
  %70 = icmp eq i32 %69, -1
  br i1 %70, label %71, label %75

71:                                               ; preds = %68
  %72 = load i32, i32* %2, align 4
  %73 = sext i32 %72 to i64
  %74 = getelementptr inbounds [500 x i8], [500 x i8]* %5, i64 0, i64 %73
  store i8 63, i8* %74, align 1
  br label %75

75:                                               ; preds = %71, %68
  br label %80

76:                                               ; preds = %37
  %77 = load i32, i32* %2, align 4
  %78 = sext i32 %77 to i64
  %79 = getelementptr inbounds [500 x i8], [500 x i8]* %5, i64 0, i64 %78
  store i8 32, i8* %79, align 1
  br label %80

80:                                               ; preds = %76, %75
  br label %81

81:                                               ; preds = %80, %33
  %82 = load i32, i32* %2, align 4
  %83 = add nsw i32 %82, 1
  store i32 %83, i32* %2, align 4
  br label %19

84:                                               ; preds = %19
  %85 = getelementptr inbounds [500 x i8], [500 x i8]* %5, i64 0, i64 0
  %86 = call i32 (i8*, ...) @printf(i8* getelementptr inbounds ([3 x i8], [3 x i8]* @.str.1, i64 0, i64 0), i8* %85)
  %87 = call i32 (i8*, ...) @printf(i8* getelementptr inbounds ([2 x i8], [2 x i8]* @.str.3, i64 0, i64 0))
  %88 = getelementptr inbounds [500 x i8], [500 x i8]* %5, i64 0, i64 0
  call void @llvm.memset.p0i8.i64(i8* align 16 %88, i8 0, i64 500, i1 false)
  %89 = getelementptr inbounds [500 x i8], [500 x i8]* %4, i64 0, i64 0
  call void @llvm.memset.p0i8.i64(i8* align 16 %89, i8 0, i64 500, i1 false)
  %90 = load %struct._IO_FILE*, %struct._IO_FILE** @stdin, align 8
  %91 = call i32 @fflush(%struct._IO_FILE* %90)
  br label %10

92:                                               ; preds = %10
  ret i32 0
}

; Function Attrs: argmemonly nounwind willreturn
declare void @llvm.memset.p0i8.i64(i8* nocapture writeonly, i8, i64, i1 immarg) #1

declare dso_local i32 @__isoc99_scanf(i8*, ...) #2

declare dso_local i32 @printf(i8*, ...) #2

declare dso_local i32 @fflush(%struct._IO_FILE*) #2


!llvm.module.flags = !{!0}
!llvm.ident = !{!1}

!0 = !{i32 1, !"wchar_size", i32 4}
!1 = !{!"clang version 10.0.0-4ubuntu1 "}
